; Function Attrs: nounwind uwtable
define i32 @Kit_TruthToGia2(ptr noundef %0, ptr noundef %1, ptr noundef %2, i32 noundef %3, ptr noundef %4, ptr noundef readonly %5, i32 noundef %6) local_unnamed_addr #0 {
  %8 = icmp eq ptr %4, null
  br i1 %8, label %9, label %14

9:                                                ; preds = %7
  %calloc = tail call dereferenceable_or_null(16) ptr @calloc(i64 1, i64 16)
  %10 = getelementptr inbounds nuw i8, ptr %calloc, i64 8
  %11 = tail call ptr @Kit_TruthToGraph2(ptr noundef %1, ptr noundef %2, i32 noundef %3, ptr noundef nonnull %calloc) #14
  %12 = load ptr, ptr %10, align 8
  %.not.i = icmp eq ptr %12, null
  br i1 %.not.i, label %Vec_IntFree.exit, label %13

13:                                               ; preds = %9
  tail call void @free(ptr noundef nonnull %12) #14
  br label %Vec_IntFree.exit

Vec_IntFree.exit:                                 ; preds = %9, %13
  tail call void @free(ptr noundef nonnull %calloc) #14
  br label %16

14:                                               ; preds = %7
  %15 = tail call ptr @Kit_TruthToGraph2(ptr noundef %1, ptr noundef %2, i32 noundef %3, ptr noundef nonnull %4) #14
  br label %16

16:                                               ; preds = %14, %Vec_IntFree.exit
  %.0 = phi ptr [ %11, %Vec_IntFree.exit ], [ %15, %14 ]
  %17 = icmp eq ptr %.0, null
  br i1 %17, label %.split21, label %.split

.split:                                           ; preds = %16
  %18 = getelementptr inbounds nuw i8, ptr %.0, i64 4
  %19 = load i32, ptr %18, align 4
  %20 = icmp sgt i32 %19, 0
  br i1 %20, label %.lr.ph.i, label %Kit_GraphToGia.exit

.lr.ph.i:                                         ; preds = %.split
  %21 = getelementptr i8, ptr %.0, i64 16
  %.not.i24 = icmp eq ptr %5, null
  %22 = getelementptr i8, ptr %5, i64 8
  %23 = getelementptr i8, ptr %0, i64 32
  %24 = getelementptr i8, ptr %0, i64 64
  br i1 %.not.i24, label %.lr.ph.split.us.i, label %.lr.ph.split.i

.lr.ph.split.us.i:                                ; preds = %.lr.ph.i, %.lr.ph.split.us.i
  %indvars.iv22.i = phi i64 [ %indvars.iv.next23.i, %.lr.ph.split.us.i ], [ 0, %.lr.ph.i ]
  %.val.us.i = load ptr, ptr %21, align 8
  %.val16.us.i = load ptr, ptr %23, align 8
  %.val17.us.i = load ptr, ptr %24, align 8
  %25 = getelementptr i8, ptr %.val17.us.i, i64 8
  %.val17.val.us.i = load ptr, ptr %25, align 8
  %26 = getelementptr inbounds nuw i32, ptr %.val17.val.us.i, i64 %indvars.iv22.i
  %27 = load i32, ptr %26, align 4
  %28 = sext i32 %27 to i64
  %29 = getelementptr inbounds %struct.Gia_Obj_t_, ptr %.val16.us.i, i64 %28
  %30 = ptrtoint ptr %29 to i64
  %31 = and i64 %30, -2
  %32 = ptrtoint ptr %.val16.us.i to i64
  %33 = sub i64 %31, %32
  %34 = sdiv exact i64 %33, 12
  %35 = trunc i64 %34 to i32
  %36 = trunc i64 %30 to i32
  %37 = and i32 %36, 1
  %38 = shl nsw i32 %35, 1
  %39 = or disjoint i32 %38, %37
  %40 = getelementptr inbounds nuw %struct.Kit_Node_t_, ptr %.val.us.i, i64 %indvars.iv22.i, i32 2
  store i32 %39, ptr %40, align 8
  %indvars.iv.next23.i = add nuw nsw i64 %indvars.iv22.i, 1
  %41 = load i32, ptr %18, align 4
  %42 = sext i32 %41 to i64
  %43 = icmp slt i64 %indvars.iv.next23.i, %42
  br i1 %43, label %.lr.ph.split.us.i, label %Kit_GraphToGia.exit, !llvm.loop !6

.lr.ph.split.i:                                   ; preds = %.lr.ph.i, %.lr.ph.split.i
  %indvars.iv.i = phi i64 [ %indvars.iv.next.i, %.lr.ph.split.i ], [ 0, %.lr.ph.i ]
  %.val.i = load ptr, ptr %21, align 8
  %.val15.i = load ptr, ptr %22, align 8
  %44 = getelementptr inbounds nuw i32, ptr %.val15.i, i64 %indvars.iv.i
  %45 = load i32, ptr %44, align 4
  %46 = getelementptr inbounds nuw %struct.Kit_Node_t_, ptr %.val.i, i64 %indvars.iv.i, i32 2
  store i32 %45, ptr %46, align 8
  %indvars.iv.next.i = add nuw nsw i64 %indvars.iv.i, 1
  %47 = load i32, ptr %18, align 4
  %48 = sext i32 %47 to i64
  %49 = icmp slt i64 %indvars.iv.next.i, %48
  br i1 %49, label %.lr.ph.split.i, label %Kit_GraphToGia.exit, !llvm.loop !6

.split21:                                         ; preds = %16
  %puts = tail call i32 @puts(ptr nonnull dereferenceable(1) @str.3)
  tail call void @Kit_DsdPrintFromTruth(ptr noundef %1, i32 noundef %3) #14
  %putchar = tail call i32 @putchar(i32 10)
  tail call void @Kit_DsdPrintFromTruth(ptr noundef %2, i32 noundef %3) #14
  %putchar23 = tail call i32 @putchar(i32 10)
  %50 = load i32, ptr inttoptr (i64 4 to ptr), align 4
  %51 = icmp sgt i32 %50, 0
  tail call void @llvm.assume(i1 %51)
  %.not.i26 = icmp eq ptr %5, null
  %52 = getelementptr i8, ptr %5, i64 8
  %53 = getelementptr i8, ptr %0, i64 32
  %54 = getelementptr i8, ptr %0, i64 64
  br i1 %.not.i26, label %.lr.ph.split.us.i32, label %.lr.ph.split.i27

.lr.ph.split.us.i32:                              ; preds = %.split21, %.lr.ph.split.us.i32
  %indvars.iv22.i33 = phi i64 [ %indvars.iv.next23.i38, %.lr.ph.split.us.i32 ], [ 0, %.split21 ]
  %.val.us.i34 = load ptr, ptr inttoptr (i64 16 to ptr), align 16
  %.val16.us.i35 = load ptr, ptr %53, align 8
  %.val17.us.i36 = load ptr, ptr %54, align 8
  %55 = getelementptr i8, ptr %.val17.us.i36, i64 8
  %.val17.val.us.i37 = load ptr, ptr %55, align 8
  %56 = getelementptr inbounds nuw i32, ptr %.val17.val.us.i37, i64 %indvars.iv22.i33
  %57 = load i32, ptr %56, align 4
  %58 = sext i32 %57 to i64
  %59 = getelementptr inbounds %struct.Gia_Obj_t_, ptr %.val16.us.i35, i64 %58
  %60 = ptrtoint ptr %59 to i64
  %61 = and i64 %60, -2
  %62 = ptrtoint ptr %.val16.us.i35 to i64
  %63 = sub i64 %61, %62
  %64 = sdiv exact i64 %63, 12
  %65 = trunc i64 %64 to i32
  %66 = trunc i64 %60 to i32
  %67 = and i32 %66, 1
  %68 = shl nsw i32 %65, 1
  %69 = or disjoint i32 %68, %67
  %70 = getelementptr inbounds nuw %struct.Kit_Node_t_, ptr %.val.us.i34, i64 %indvars.iv22.i33, i32 2
  store i32 %69, ptr %70, align 8
  %indvars.iv.next23.i38 = add nuw nsw i64 %indvars.iv22.i33, 1
  %71 = load i32, ptr inttoptr (i64 4 to ptr), align 4
  %72 = sext i32 %71 to i64
  %73 = icmp slt i64 %indvars.iv.next23.i38, %72
  tail call void @llvm.assume(i1 %73)
  br label %.lr.ph.split.us.i32

.lr.ph.split.i27:                                 ; preds = %.split21, %.lr.ph.split.i27
  %indvars.iv.i28 = phi i64 [ %indvars.iv.next.i31, %.lr.ph.split.i27 ], [ 0, %.split21 ]
  %.val.i29 = load ptr, ptr inttoptr (i64 16 to ptr), align 16
  %.val15.i30 = load ptr, ptr %52, align 8
  %74 = getelementptr inbounds nuw i32, ptr %.val15.i30, i64 %indvars.iv.i28
  %75 = load i32, ptr %74, align 4
  %76 = getelementptr inbounds nuw %struct.Kit_Node_t_, ptr %.val.i29, i64 %indvars.iv.i28, i32 2
  store i32 %75, ptr %76, align 8
  %indvars.iv.next.i31 = add nuw nsw i64 %indvars.iv.i28, 1
  %77 = load i32, ptr inttoptr (i64 4 to ptr), align 4
  %78 = sext i32 %77 to i64
  %79 = icmp slt i64 %indvars.iv.next.i31, %78
  tail call void @llvm.assume(i1 %79)
  br label %.lr.ph.split.i27

Kit_GraphToGia.exit:                              ; preds = %.lr.ph.split.i, %.lr.ph.split.us.i, %.split
  %80 = tail call i32 @Kit_GraphToGiaInternal(ptr noundef %0, ptr noundef nonnull %.0, i32 noundef %6)
  tail call void @Kit_GraphFree(ptr noundef nonnull %.0) #14
  ret i32 %80
}